(lp0
(dp1
S'result'
p2
F0.0009419815032928523
sS'p_dir'
p3
S'P0_uux_zx0_zepemz_no_a'
p4
sS'dirname'
p5
S'/home/storage/Users/xuyue/HeavyHiggs/plot_heavy/MG5_aMC_v2_6_6/PROCNLO_HC_NLO_X0_UFO_0_1/SubProcesses/P0_uux_zx0_zepemz_no_a/GF2'
p6
sS'resultABS'
p7
F0.0010206142206170912
sS'time_spend'
p8
F94.129158
sS'wgt_frac'
p9
F1.0
sS'err_percABS'
p10
F0.3684187208941585
sS'errorABS'
p11
F3.7601338568613726e-06
sS'mint_mode'
p12
I2
sS'niters_done'
p13
I2
sS'nevents'
p14
I1748
sS'split'
p15
I0
sS'npoints_done'
p16
I33280
sS'error'
p17
F3.6529500768762143e-06
sS'npoints'
p18
I-1
sS'niters'
p19
I12
sS'run_mode'
p20
S'all'
p21
sS'err_perc'
p22
F0.38779424692594516
sS'channel'
p23
S'2'
p24
sS'accuracy'
p25
F0.023580647636047135
sa(dp26
g2
F0.0009372919372179333
sg3
S'P0_uxu_zx0_zepemz_no_a'
p27
sg5
S'/home/storage/Users/xuyue/HeavyHiggs/plot_heavy/MG5_aMC_v2_6_6/PROCNLO_HC_NLO_X0_UFO_0_1/SubProcesses/P0_uxu_zx0_zepemz_no_a/GF2'
p28
sg7
F0.0010154237385734753
sg8
F94.123085
sg9
F1.0
sg10
F0.3044572628788032
sg11
F3.091531321082417e-06
sg12
I2
sg13
I2
sg14
I1760
sg15
I0
sg16
I33280
sg17
F2.902492239714912e-06
sg18
I-1
sg19
I12
sg20
g21
sg22
F0.3096678979582476
sg23
g24
sg25
F0.023640838722893312
sa(dp29
g2
F0.0007853323753290475
sg3
S'P0_dxd_zx0_zepemz_no_a'
p30
sg5
S'/home/storage/Users/xuyue/HeavyHiggs/plot_heavy/MG5_aMC_v2_6_6/PROCNLO_HC_NLO_X0_UFO_0_1/SubProcesses/P0_dxd_zx0_zepemz_no_a/GF2'
p31
sg7
F0.0008490952407538959
sg8
F93.2668686
sg9
F1.0
sg10
F0.35201956030585346
sg11
F2.9889813330797922e-06
sg12
I2
sg13
I2
sg14
I1503
sg15
I0
sg16
I33280
sg17
F2.8322475174483613e-06
sg18
I-1
sg19
I12
sg20
g21
sg22
F0.3606431628724938
sg23
g24
sg25
F0.025852844440953426
sa(dp32
g2
F0.0007826998436948786
sg3
S'P0_ddx_zx0_zepemz_no_a'
p33
sg5
S'/home/storage/Users/xuyue/HeavyHiggs/plot_heavy/MG5_aMC_v2_6_6/PROCNLO_HC_NLO_X0_UFO_0_1/SubProcesses/P0_ddx_zx0_zepemz_no_a/GF2'
p34
sg7
F0.0008484414215905716
sg8
F94.9027557
sg9
F1.0
sg10
F0.3378269686299132
sg11
F2.86626393515997e-06
sg12
I2
sg13
I2
sg14
I1502
sg15
I0
sg16
I33280
sg17
F2.7474824225898017e-06
sg18
I-1
sg19
I12
sg20
g21
sg22
F0.35102631547999363
sg23
g24
sg25
F0.025862803779050217
sa(dp35
g2
F0.000490886902955327
sg3
g4
sg5
S'/home/storage/Users/xuyue/HeavyHiggs/plot_heavy/MG5_aMC_v2_6_6/PROCNLO_HC_NLO_X0_UFO_0_1/SubProcesses/P0_uux_zx0_zepemz_no_a/GF1'
p36
sg7
F0.0005311889713701138
sg8
F93.1866913
sg9
F1.0
sg10
F0.4333774548902259
sg11
F2.30205324478137e-06
sg12
I2
sg13
I2
sg14
I964
sg15
I0
sg16
I33280
sg17
F2.2127741925845605e-06
sg18
I-1
sg19
I12
sg20
g21
sg22
F0.4507706722796663
sg23
S'1'
p37
sg25
F0.03268601769921398
sa(dp38
g2
F0.00040663176408477377
sg3
g30
sg5
S'/home/storage/Users/xuyue/HeavyHiggs/plot_heavy/MG5_aMC_v2_6_6/PROCNLO_HC_NLO_X0_UFO_0_1/SubProcesses/P0_dxd_zx0_zepemz_no_a/GF1'
p39
sg7
F0.00044133251611652605
sg8
F93.14991
sg9
F1.0
sg10
F0.5027453690479939
sg11
F2.218778786878826e-06
sg12
I2
sg13
I2
sg14
I752
sg15
I0
sg16
I33280
sg17
F2.0934677113996397e-06
sg18
I-1
sg19
I12
sg20
g21
sg22
F0.5148313280718517
sg23
g37
sg25
F0.03585944578911574
sa(dp40
g2
F0.00048797513277809665
sg3
g27
sg5
S'/home/storage/Users/xuyue/HeavyHiggs/plot_heavy/MG5_aMC_v2_6_6/PROCNLO_HC_NLO_X0_UFO_0_1/SubProcesses/P0_uxu_zx0_zepemz_no_a/GF1'
p41
sg7
F0.000529348677584056
sg8
F92.7761841
sg9
F1.0
sg10
F0.3880395313824962
sg11
F2.0540821278766118e-06
sg12
I2
sg13
I2
sg14
I986
sg15
I0
sg16
I33280
sg17
F1.99251037518361e-06
sg18
I-1
sg19
I12
sg20
g21
sg22
F0.4083221134323028
sg23
g37
sg25
F0.03274278527852041
sa(dp42
g2
F0.00040586539989203414
sg3
g33
sg5
S'/home/storage/Users/xuyue/HeavyHiggs/plot_heavy/MG5_aMC_v2_6_6/PROCNLO_HC_NLO_X0_UFO_0_1/SubProcesses/P0_ddx_zx0_zepemz_no_a/GF1'
p43
sg7
F0.00043964938629972004
sg8
F93.2599106
sg9
F1.0
sg10
F0.3399699498904674
sg11
F1.4946757982969057e-06
sg12
I2
sg13
I2
sg14
I785
sg15
I0
sg16
I33280
sg17
F1.3888857911622576e-06
sg18
I-1
sg19
I12
sg20
g21
sg22
F0.3422035461834688
sg23
g37
sg25
F0.03592802139573033
sa.