(lp0
(dp1
S'result'
p2
F0.001744114277680217
sS'p_dir'
p3
S'P0_uux_zx0_wpepemwm_no_a'
p4
sS'dirname'
p5
S'/home/storage/Users/xuyue/HeavyHiggs/plot_heavy/MG5_aMC_v2_6_6/PROCNLO_HC_NLO_X0_UFO_0_2/SubProcesses/P0_uux_zx0_wpepemwm_no_a/GF1'
p6
sS'resultABS'
p7
F0.0018899131060116623
sS'time_spend'
p8
F51.7408409
sS'wgt_frac'
p9
F1.0
sS'err_percABS'
p10
F0.5077843256199633
sS'errorABS'
p11
F9.596682520164622e-06
sS'mint_mode'
p12
I2
sS'niters_done'
p13
I2
sS'nevents'
p14
I2718
sS'split'
p15
I0
sS'npoints_done'
p16
I33280
sS'error'
p17
F8.483864104837334e-06
sS'npoints'
p18
I-1
sS'niters'
p19
I12
sS'run_mode'
p20
S'all'
p21
sS'err_perc'
p22
F0.4864282239648547
sS'channel'
p23
S'1'
p24
sS'accuracy'
p25
F0.019114261606488752
sa(dp26
g2
F0.0014486542537475839
sg3
S'P0_dxd_zx0_wpepemwm_no_a'
p27
sg5
S'/home/storage/Users/xuyue/HeavyHiggs/plot_heavy/MG5_aMC_v2_6_6/PROCNLO_HC_NLO_X0_UFO_0_2/SubProcesses/P0_dxd_zx0_wpepemwm_no_a/GF1'
p28
sg7
F0.0015704365413206662
sg8
F48.3477478
sg9
F1.0
sg10
F0.4572552836054397
sg11
F7.180904060859271e-06
sg12
I2
sg13
I2
sg14
I2256
sg15
I0
sg16
I33280
sg17
F6.728842151346249e-06
sg18
I-1
sg19
I12
sg20
g21
sg22
F0.4644891722051088
sg23
g24
sg25
F0.02096854268607613
sa(dp29
g2
F0.0017289299519293627
sg3
S'P0_uxu_zx0_wpepemwm_no_a'
p30
sg5
S'/home/storage/Users/xuyue/HeavyHiggs/plot_heavy/MG5_aMC_v2_6_6/PROCNLO_HC_NLO_X0_UFO_0_2/SubProcesses/P0_uxu_zx0_wpepemwm_no_a/GF1'
p31
sg7
F0.0018779503452651435
sg8
F51.4318275
sg9
F1.0
sg10
F0.35897315019254167
sg11
F6.741337513449998e-06
sg12
I2
sg13
I2
sg14
I2743
sg15
I0
sg16
I33280
sg17
F6.496079868522789e-06
sg18
I-1
sg19
I12
sg20
g21
sg22
F0.3757283434920904
sg23
g24
sg25
F0.019175044988660656
sa(dp32
g2
F0.0014450601153219145
sg3
S'P0_ddx_zx0_wpepemwm_no_a'
p33
sg5
S'/home/storage/Users/xuyue/HeavyHiggs/plot_heavy/MG5_aMC_v2_6_6/PROCNLO_HC_NLO_X0_UFO_0_2/SubProcesses/P0_ddx_zx0_wpepemwm_no_a/GF1'
p34
sg7
F0.00156659197466263
sg8
F49.0638695
sg9
F1.0
sg10
F0.339429486774655
sg11
F5.317475099450299e-06
sg12
I2
sg13
I2
sg14
I2283
sg15
I0
sg16
I33280
sg17
F4.990438872060032e-06
sg18
I-1
sg19
I12
sg20
g21
sg22
F0.3453447243575965
sg23
g24
sg25
F0.02099425632522733
sa.