(lp0
(dp1
S'result'
p2
F0.004704224247565622
sS'p_dir'
p3
S'P0_dxu_wpx0_wpepemz_no_a'
p4
sS'dirname'
p5
S'/home/storage/Users/xuyue/HeavyHiggs/plot_heavy/MG5_aMC_v2_6_6/PROCNLO_HC_NLO_X0_UFO_0/SubProcesses/P0_dxu_wpx0_wpepemz_no_a/GF1'
p6
sS'resultABS'
p7
F0.005090241497018818
sS'time_spend'
p8
F38.9991264
sS'wgt_frac'
p9
F1.0
sS'err_percABS'
p10
F0.3986278183885501
sS'errorABS'
p11
F2.0291118630274786e-05
sS'mint_mode'
p12
I2
sS'niters_done'
p13
I2
sS'nevents'
p14
I1801
sS'split'
p15
I0
sS'npoints_done'
p16
I33280
sS'error'
p17
F1.8652836098134127e-05
sS'npoints'
p18
I-1
sS'niters'
p19
I12
sS'run_mode'
p20
S'all'
p21
sS'err_perc'
p22
F0.3965124772227161
sS'channel'
p23
S'1'
p24
sS'accuracy'
p25
F0.02340258800443406
sa(dp26
g2
F0.004689220357944089
sg3
S'P0_udx_wpx0_wpepemz_no_a'
p27
sg5
S'/home/storage/Users/xuyue/HeavyHiggs/plot_heavy/MG5_aMC_v2_6_6/PROCNLO_HC_NLO_X0_UFO_0/SubProcesses/P0_udx_wpx0_wpepemz_no_a/GF1'
p28
sg7
F0.005081062199540054
sg8
F38.8483391
sg9
F1.0
sg10
F0.3363127967577126
sg11
F1.7088262388272103e-05
sg12
I2
sg13
I2
sg14
I1799
sg15
I0
sg16
I33280
sg17
F1.632621976200315e-05
sg18
I-1
sg19
I12
sg20
g21
sg22
F0.3481649083593314
sg23
g24
sg25
F0.023423717679156394
sa(dp29
g2
F0.0023775719340513876
sg3
S'P0_uxd_wmx0_wmepemz_no_a'
p30
sg5
S'/home/storage/Users/xuyue/HeavyHiggs/plot_heavy/MG5_aMC_v2_6_6/PROCNLO_HC_NLO_X0_UFO_0/SubProcesses/P0_uxd_wmx0_wmepemz_no_a/GF1'
p31
sg7
F0.0025818485691074737
sg8
F38.6137276
sg9
F1.0
sg10
F0.4240488535735518
sg11
F1.0948299258305395e-05
sg12
I2
sg13
I2
sg14
I972
sg15
I0
sg16
I33280
sg17
F1.0407644613995647e-05
sg18
I-1
sg19
I12
sg20
g21
sg22
F0.43774257531131766
sg23
g24
sg25
F0.032860010466529505
sa(dp32
g2
F0.0017344134418276818
sg3
S'P0_uxu_zx0_wpepemwm_no_a'
p33
sg5
S'/home/storage/Users/xuyue/HeavyHiggs/plot_heavy/MG5_aMC_v2_6_6/PROCNLO_HC_NLO_X0_UFO_0/SubProcesses/P0_uxu_zx0_wpepemwm_no_a/GF1'
p34
sg7
F0.0018826708722495498
sg8
F55.3343201
sg9
F1.0
sg10
F0.3857568119093493
sg11
F7.262531135535802e-06
sg12
I2
sg13
I2
sg14
I697
sg15
I0
sg16
I33280
sg17
F6.836325179089445e-06
sg18
I-1
sg19
I12
sg20
g21
sg22
F0.3941577604406418
sg23
g24
sg25
F0.0384809583047916
sa(dp35
g2
F0.0023635884352521588
sg3
S'P0_dux_wmx0_wmepemz_no_a'
p36
sg5
S'/home/storage/Users/xuyue/HeavyHiggs/plot_heavy/MG5_aMC_v2_6_6/PROCNLO_HC_NLO_X0_UFO_0/SubProcesses/P0_dux_wmx0_wmepemz_no_a/GF1'
p37
sg7
F0.002562995699344774
sg8
F39.6142502
sg9
F1.0
sg10
F0.2632045336001788
sg11
F6.745920876653054e-06
sg12
I2
sg13
I2
sg14
I869
sg15
I0
sg16
I33280
sg17
F6.461954297797105e-06
sg18
I-1
sg19
I12
sg20
g21
sg22
F0.27339591789412837
sg23
g24
sg25
F0.032980644775423285
sa(dp38
g2
F0.001452161932874635
sg3
S'P0_dxd_zx0_wpepemwm_no_a'
p39
sg5
S'/home/storage/Users/xuyue/HeavyHiggs/plot_heavy/MG5_aMC_v2_6_6/PROCNLO_HC_NLO_X0_UFO_0/SubProcesses/P0_dxd_zx0_wpepemwm_no_a/GF1'
p40
sg7
F0.001575834151324542
sg8
F55.61903
sg9
F1.0
sg10
F0.40546506173968166
sg11
F6.389456914583043e-06
sg12
I2
sg13
I2
sg14
I529
sg15
I0
sg16
I33280
sg17
F6.3199933036857295e-06
sg18
I-1
sg19
I12
sg20
g21
sg22
F0.43521271014004287
sg23
g24
sg25
F0.042060828837561556
sa(dp41
g2
F0.0017156553862630404
sg3
S'P0_uux_zx0_wpepemwm_no_a'
p42
sg5
S'/home/storage/Users/xuyue/HeavyHiggs/plot_heavy/MG5_aMC_v2_6_6/PROCNLO_HC_NLO_X0_UFO_0/SubProcesses/P0_uux_zx0_wpepemwm_no_a/GF1'
p43
sg7
F0.001867919978453545
sg8
F54.5923233
sg9
F1.0
sg10
F0.3417637377479778
sg11
F6.383873136504057e-06
sg12
I2
sg13
I2
sg14
I692
sg15
I0
sg16
I33280
sg17
F6.014174866629443e-06
sg18
I-1
sg19
I12
sg20
g21
sg22
F0.35054678898710745
sg23
g24
sg25
F0.038632600854649354
sa(dp44
g2
F0.0014387611083476433
sg3
S'P0_ddx_zx0_wpepemwm_no_a'
p45
sg5
S'/home/storage/Users/xuyue/HeavyHiggs/plot_heavy/MG5_aMC_v2_6_6/PROCNLO_HC_NLO_X0_UFO_0/SubProcesses/P0_ddx_zx0_wpepemwm_no_a/GF1'
p46
sg7
F0.0015583057068710112
sg8
F56.421875
sg9
F1.0
sg10
F0.32440152485308316
sg11
F5.055167474962177e-06
sg12
I2
sg13
I2
sg14
I562
sg15
I0
sg16
I33280
sg17
F4.864965086452147e-06
sg18
I-1
sg19
I12
sg20
g21
sg22
F0.33813570982880925
sg23
g24
sg25
F0.04229672582059268
sa(dp47
g2
F0.0007864468083296169
sg3
S'P0_dxd_zx0_zepemz_no_a'
p48
sg5
S'/home/storage/Users/xuyue/HeavyHiggs/plot_heavy/MG5_aMC_v2_6_6/PROCNLO_HC_NLO_X0_UFO_0/SubProcesses/P0_dxd_zx0_zepemz_no_a/GF2'
p49
sg7
F0.0008529966101804886
sg8
F93.3266525
sg9
F1.0
sg10
F0.4881434406128221
sg11
F4.163847001245779e-06
sg12
I2
sg13
I2
sg14
I307
sg15
I0
sg16
I33280
sg17
F4.155192006599071e-06
sg18
I-1
sg19
I12
sg20
g21
sg22
F0.5283500374837227
sg23
S'2'
p50
sg25
F0.057168846298852806
sa(dp51
g2
F0.0009404733642537343
sg3
S'P0_uxu_zx0_zepemz_no_a'
p52
sg5
S'/home/storage/Users/xuyue/HeavyHiggs/plot_heavy/MG5_aMC_v2_6_6/PROCNLO_HC_NLO_X0_UFO_0/SubProcesses/P0_uxu_zx0_zepemz_no_a/GF2'
p53
sg7
F0.0010172683382087143
sg8
F93.8942261
sg9
F1.0
sg10
F0.3299781271414324
sg11
F3.3567630104238875e-06
sg12
I2
sg13
I2
sg14
I365
sg15
I0
sg16
I33280
sg17
F3.1762904294817922e-06
sg18
I-1
sg19
I12
sg20
g21
sg22
F0.33773316185325236
sg23
g50
sg25
F0.05234983495827337
sa(dp54
g2
F0.0009419036147875334
sg3
S'P0_uux_zx0_zepemz_no_a'
p55
sg5
S'/home/storage/Users/xuyue/HeavyHiggs/plot_heavy/MG5_aMC_v2_6_6/PROCNLO_HC_NLO_X0_UFO_0/SubProcesses/P0_uux_zx0_zepemz_no_a/GF2'
p56
sg7
F0.0010232447330155733
sg8
F92.7523117
sg9
F1.0
sg10
F0.3167409547694304
sg11
F3.2410351369814363e-06
sg12
I2
sg13
I2
sg14
I351
sg15
I0
sg16
I33280
sg17
F3.093529699758634e-06
sg18
I-1
sg19
I12
sg20
g21
sg22
F0.3284337857070913
sg23
g50
sg25
F0.052196733046096455
sa(dp57
g2
F0.0007851652771299729
sg3
S'P0_ddx_zx0_zepemz_no_a'
p58
sg5
S'/home/storage/Users/xuyue/HeavyHiggs/plot_heavy/MG5_aMC_v2_6_6/PROCNLO_HC_NLO_X0_UFO_0/SubProcesses/P0_ddx_zx0_zepemz_no_a/GF2'
p59
sg7
F0.0008477218981959313
sg8
F93.9544601
sg9
F1.0
sg10
F0.26785164125687677
sg11
F2.270637017611752e-06
sg12
I2
sg13
I2
sg14
I327
sg15
I0
sg16
I33280
sg17
F2.1716968229054753e-06
sg18
I-1
sg19
I12
sg20
g21
sg22
F0.27659104218715747
sg23
g50
sg25
F0.057346429051348
sa(dp60
g2
F0.0004879105449826051
sg3
g52
sg5
S'/home/storage/Users/xuyue/HeavyHiggs/plot_heavy/MG5_aMC_v2_6_6/PROCNLO_HC_NLO_X0_UFO_0/SubProcesses/P0_uxu_zx0_zepemz_no_a/GF1'
p61
sg7
F0.0005282538881823332
sg8
F92.9886322
sg9
F1.0
sg10
F0.3833819637266265
sg11
F2.0252301299756867e-06
sg12
I2
sg13
I2
sg14
I187
sg15
I0
sg16
I33280
sg17
F1.971609488105263e-06
sg18
I-1
sg19
I12
sg20
g21
sg22
F0.4040924116890227
sg23
g24
sg25
F0.0726460038609472
sa(dp62
g2
F0.00040599341873274986
sg3
g48
sg5
S'/home/storage/Users/xuyue/HeavyHiggs/plot_heavy/MG5_aMC_v2_6_6/PROCNLO_HC_NLO_X0_UFO_0/SubProcesses/P0_dxd_zx0_zepemz_no_a/GF1'
p63
sg7
F0.0004413787239300637
sg8
F93.2004089
sg9
F1.0
sg10
F0.45154191550927736
sg11
F1.993009944684215e-06
sg12
I2
sg13
I2
sg14
I161
sg15
I0
sg16
I33280
sg17
F1.7952428514200755e-06
sg18
I-1
sg19
I12
sg20
g21
sg22
F0.44218521005184475
sg23
g24
sg25
F0.07947442294779372
sa(dp64
g2
F0.00048539967151403456
sg3
g55
sg5
S'/home/storage/Users/xuyue/HeavyHiggs/plot_heavy/MG5_aMC_v2_6_6/PROCNLO_HC_NLO_X0_UFO_0/SubProcesses/P0_uux_zx0_zepemz_no_a/GF1'
p65
sg7
F0.0005256060004193635
sg8
F92.4445267
sg9
F1.0
sg10
F0.3663546842368945
sg11
F1.9255822031665294e-06
sg12
I2
sg13
I2
sg14
I204
sg15
I0
sg16
I33280
sg17
F1.8751367461353871e-06
sg18
I-1
sg19
I12
sg20
g21
sg22
F0.3863077905031443
sg23
g24
sg25
F0.07282876129511169
sa(dp66
g2
F0.0004065141443104997
sg3
g58
sg5
S'/home/storage/Users/xuyue/HeavyHiggs/plot_heavy/MG5_aMC_v2_6_6/PROCNLO_HC_NLO_X0_UFO_0/SubProcesses/P0_ddx_zx0_zepemz_no_a/GF1'
p67
sg7
F0.00044094304558679824
sg8
F93.1364441
sg9
F1.0
sg10
F0.3751364910967267
sg11
F1.6541382689493548e-06
sg12
I2
sg13
I2
sg14
I177
sg15
I0
sg16
I33280
sg17
F1.715031593286457e-06
sg18
I-1
sg19
I12
sg20
g21
sg22
F0.42188731125097045
sg23
g24
sg25
F0.0795136760174626
sa.