(lp0
(dp1
S'result'
p2
F0.004664811162608223
sS'p_dir'
p3
S'P0_udx_wpx0_wpepemz_no_a'
p4
sS'dirname'
p5
S'/home/storage/Users/xuyue/HeavyHiggs/plot_heavy/MG5_aMC_v2_6_6/PROCNLO_HC_NLO_X0_UFO_0_3/SubProcesses/P0_udx_wpx0_wpepemz_no_a/GF1'
p6
sS'resultABS'
p7
F0.0050817280926138695
sS'time_spend'
p8
F37.0671844
sS'wgt_frac'
p9
F1.0
sS'err_percABS'
p10
F0.3213864883212699
sS'errorABS'
p11
F1.6331987462887168e-05
sS'mint_mode'
p12
I2
sS'niters_done'
p13
I2
sS'nevents'
p14
I3370
sS'split'
p15
I0
sS'npoints_done'
p16
I33280
sS'error'
p17
F1.8307129381636328e-05
sS'npoints'
p18
I-1
sS'niters'
p19
I12
sS'run_mode'
p20
S'all'
p21
sS'err_perc'
p22
F0.39245167153562355
sS'channel'
p23
S'1'
p24
sS'accuracy'
p25
F0.017352238653362786
sa(dp26
g2
F0.004702025672582086
sg3
S'P0_dxu_wpx0_wpepemz_no_a'
p27
sg5
S'/home/storage/Users/xuyue/HeavyHiggs/plot_heavy/MG5_aMC_v2_6_6/PROCNLO_HC_NLO_X0_UFO_0_3/SubProcesses/P0_dxu_wpx0_wpepemz_no_a/GF1'
p28
sg7
F0.005096031754884595
sg8
F36.9511719
sg9
F1.0
sg10
F0.30536816322339055
sg11
F1.5561658567171803e-05
sg12
I2
sg13
I2
sg14
I3283
sg15
I0
sg16
I33280
sg17
F1.507308693484655e-05
sg18
I-1
sg19
I12
sg20
g21
sg22
F0.3205658153408011
sg23
g24
sg25
F0.017327869204550678
sa(dp29
g2
F0.0023615847039148946
sg3
S'P0_dux_wmx0_wmepemz_no_a'
p30
sg5
S'/home/storage/Users/xuyue/HeavyHiggs/plot_heavy/MG5_aMC_v2_6_6/PROCNLO_HC_NLO_X0_UFO_0_3/SubProcesses/P0_dux_wmx0_wmepemz_no_a/GF1'
p31
sg7
F0.0025626536599710993
sg8
F35.7859077
sg9
F1.0
sg10
F0.3483425750995079
sg11
F8.926813750025114e-06
sg12
I2
sg13
I2
sg14
I1658
sg15
I0
sg16
I33280
sg17
F8.704191912418647e-06
sg18
I-1
sg19
I12
sg20
g21
sg22
F0.3685741992649832
sg23
g24
sg25
F0.02443522070574378
sa(dp32
g2
F0.0023558039758559044
sg3
S'P0_uxd_wmx0_wmepemz_no_a'
p33
sg5
S'/home/storage/Users/xuyue/HeavyHiggs/plot_heavy/MG5_aMC_v2_6_6/PROCNLO_HC_NLO_X0_UFO_0_3/SubProcesses/P0_uxd_wmx0_wmepemz_no_a/GF1'
p34
sg7
F0.00256067924579943
sg8
F35.8969765
sg9
F1.0
sg10
F0.3223481818555601
sg11
F8.25430299198713e-06
sg12
I2
sg13
I2
sg14
I1689
sg15
I0
sg16
I33280
sg17
F7.97464678053623e-06
sg18
I-1
sg19
I12
sg20
g21
sg22
F0.3385106257679569
sg23
g24
sg25
F0.02444463929064197
sa.